target datalayout = "e-m:e-p270:32:32-p271:32:32-p272:64:64-i64:64-i128:128-f80:128-n8:16:32:64-S128"
target triple = "x86_64-pc-linux-gnu"

%struct._GtkDarktableGradientSlider = type { %struct._GtkDrawingArea, ptr, i32, i32, i32, [10 x double], [10 x double], [10 x i32], double, double, [3 x double], i32, i32, i32, i32, i32, i32, i32, i32, i32, ptr }
%struct._GtkDrawingArea = type { %struct._GtkWidget, ptr }
%struct._GtkWidget = type { %struct._GObject, ptr }
%struct._GObject = type { %struct._GTypeInstance, i32, ptr }
%struct._GTypeInstance = type { ptr }
%struct._GTypeClass = type { i64 }

@_gradient_slider_get_type.static_g_define_type_id = internal global i64 0, align 8
@.str.1 = private unnamed_addr constant [16 x i8] c"gslider != NULL\00", align 1
@.str.2 = private unnamed_addr constant [14 x i8] c"value-changed\00", align 1
@.str.9 = private unnamed_addr constant [33 x i8] c"DTGTK_IS_GRADIENT_SLIDER(widget)\00", align 1
@__func__._gradient_slider_add_delta_internal = private unnamed_addr constant [36 x i8] c"_gradient_slider_add_delta_internal\00", align 1
@__func__._clamp_marker = private unnamed_addr constant [14 x i8] c"_clamp_marker\00", align 1

; Function Attrs: nounwind uwtable
define i64 @_gradient_slider_get_type() #0 {
  %1 = alloca i32, align 4
  %2 = alloca i64, align 8
  %3 = alloca ptr, align 8
  %4 = alloca i64, align 8
  %5 = alloca i64, align 8
  call void @llvm.lifetime.start.p0(i64 8, ptr %2) #11
  call void @llvm.lifetime.start.p0(i64 8, ptr %3) #11
  store ptr @_gradient_slider_get_type.static_g_define_type_id, ptr %3, align 8, !tbaa !6
  %6 = load ptr, ptr %3, align 8, !tbaa !6
  %7 = load atomic i64, ptr %6 seq_cst, align 8
  store i64 %7, ptr %2, align 8
  %8 = load i64, ptr %2, align 8, !tbaa !11
  store i64 %8, ptr %4, align 8, !tbaa !11
  call void @llvm.lifetime.end.p0(i64 8, ptr %3) #11
  call void @llvm.lifetime.end.p0(i64 8, ptr %2) #11
  %9 = load i64, ptr %4, align 8, !tbaa !11
  %10 = icmp ne i64 %9, 0
  br i1 %10, label %14, label %11

11:                                               ; preds = %0
  %12 = call i32 @g_once_init_enter(ptr noundef @_gradient_slider_get_type.static_g_define_type_id)
  %13 = icmp ne i32 %12, 0
  br label %14

14:                                               ; preds = %11, %0
  %15 = phi i1 [ false, %0 ], [ %13, %11 ]
  %16 = zext i1 %15 to i32
  store i32 %16, ptr %1, align 4, !tbaa !13
  %17 = load i32, ptr %1, align 4, !tbaa !13
  %18 = icmp ne i32 %17, 0
  br i1 %18, label %19, label %22

19:                                               ; preds = %14
  call void @llvm.lifetime.start.p0(i64 8, ptr %5) #11
  %20 = call i64 @_gradient_slider_get_type_once()
  store i64 %20, ptr %5, align 8, !tbaa !11
  %21 = load i64, ptr %5, align 8, !tbaa !11
  call void @g_once_init_leave(ptr noundef @_gradient_slider_get_type.static_g_define_type_id, i64 noundef %21)
  call void @llvm.lifetime.end.p0(i64 8, ptr %5) #11
  br label %22

22:                                               ; preds = %19, %14
  %23 = load i64, ptr @_gradient_slider_get_type.static_g_define_type_id, align 8, !tbaa !11
  ret i64 %23
}

; Function Attrs: nounwind uwtable
define i64 @dtgtk_gradient_slider_get_type() #0 {
  %1 = call i64 @_gradient_slider_get_type()
  ret i64 %1
}

; Function Attrs: inlinehint nounwind uwtable
define internal void @_clamp_marker(ptr noundef %0, i32 noundef %1) #8 {
  %3 = alloca ptr, align 8
  %4 = alloca i32, align 4
  %5 = alloca i32, align 4
  %6 = alloca i32, align 4
  %7 = alloca double, align 8
  %8 = alloca double, align 8
  store ptr %0, ptr %3, align 8, !tbaa !24
  store i32 %1, ptr %4, align 4, !tbaa !13
  br label %9

9:                                                ; preds = %2
  call void @llvm.lifetime.start.p0(i64 4, ptr %5) #11
  %10 = load ptr, ptr %3, align 8, !tbaa !24
  %11 = icmp ne ptr %10, null
  br i1 %11, label %12, label %13

12:                                               ; preds = %9
  store i32 1, ptr %5, align 4, !tbaa !13
  br label %14

13:                                               ; preds = %9
  store i32 0, ptr %5, align 4, !tbaa !13
  br label %14

14:                                               ; preds = %13, %12
  %15 = load i32, ptr %5, align 4, !tbaa !13
  store i32 %15, ptr %6, align 4, !tbaa !13
  call void @llvm.lifetime.end.p0(i64 4, ptr %5) #11
  %16 = load i32, ptr %6, align 4, !tbaa !13
  %17 = sext i32 %16 to i64
  %18 = call i64 @llvm.expect.i64(i64 %17, i64 1)
  %19 = icmp ne i64 %18, 0
  br i1 %19, label %20, label %21

20:                                               ; preds = %14
  br label %22

21:                                               ; preds = %14
  call void @g_return_if_fail_warning(ptr noundef null, ptr noundef @__func__._clamp_marker, ptr noundef @.str.1)
  br label %91

22:                                               ; preds = %20
  br label %23

23:                                               ; preds = %22
  call void @llvm.lifetime.start.p0(i64 8, ptr %7) #11
  %24 = load i32, ptr %4, align 4, !tbaa !13
  %25 = icmp eq i32 %24, 0
  br i1 %25, label %26, label %27

26:                                               ; preds = %23
  br label %35

27:                                               ; preds = %23
  %28 = load ptr, ptr %3, align 8, !tbaa !24
  %29 = getelementptr inbounds nuw %struct._GtkDarktableGradientSlider, ptr %28, i32 0, i32 5
  %30 = load i32, ptr %4, align 4, !tbaa !13
  %31 = sub nsw i32 %30, 1
  %32 = sext i32 %31 to i64
  %33 = getelementptr inbounds [10 x double], ptr %29, i64 0, i64 %32
  %34 = load double, ptr %33, align 8, !tbaa !45
  br label %35

35:                                               ; preds = %27, %26
  %36 = phi reassoc nsz arcp contract afn double [ 0.000000e+00, %26 ], [ %34, %27 ]
  store double %36, ptr %7, align 8, !tbaa !45
  call void @llvm.lifetime.start.p0(i64 8, ptr %8) #11
  %37 = load i32, ptr %4, align 4, !tbaa !13
  %38 = load ptr, ptr %3, align 8, !tbaa !24
  %39 = getelementptr inbounds nuw %struct._GtkDarktableGradientSlider, ptr %38, i32 0, i32 4
  %40 = load i32, ptr %39, align 8, !tbaa !26
  %41 = sub nsw i32 %40, 1
  %42 = icmp eq i32 %37, %41
  br i1 %42, label %43, label %44

43:                                               ; preds = %35
  br label %52

44:                                               ; preds = %35
  %45 = load ptr, ptr %3, align 8, !tbaa !24
  %46 = getelementptr inbounds nuw %struct._GtkDarktableGradientSlider, ptr %45, i32 0, i32 5
  %47 = load i32, ptr %4, align 4, !tbaa !13
  %48 = add nsw i32 %47, 1
  %49 = sext i32 %48 to i64
  %50 = getelementptr inbounds [10 x double], ptr %46, i64 0, i64 %49
  %51 = load double, ptr %50, align 8, !tbaa !45
  br label %52

52:                                               ; preds = %44, %43
  %53 = phi reassoc nsz arcp contract afn double [ 1.000000e+00, %43 ], [ %51, %44 ]
  store double %53, ptr %8, align 8, !tbaa !45
  %54 = load ptr, ptr %3, align 8, !tbaa !24
  %55 = getelementptr inbounds nuw %struct._GtkDarktableGradientSlider, ptr %54, i32 0, i32 5
  %56 = load i32, ptr %4, align 4, !tbaa !13
  %57 = sext i32 %56 to i64
  %58 = getelementptr inbounds [10 x double], ptr %55, i64 0, i64 %57
  %59 = load double, ptr %58, align 8, !tbaa !45
  %60 = load double, ptr %8, align 8, !tbaa !45
  %61 = fcmp reassoc nsz arcp contract afn ogt double %59, %60
  br i1 %61, label %62, label %64

62:                                               ; preds = %52
  %63 = load double, ptr %8, align 8, !tbaa !45
  br label %84

64:                                               ; preds = %52
  %65 = load ptr, ptr %3, align 8, !tbaa !24
  %66 = getelementptr inbounds nuw %struct._GtkDarktableGradientSlider, ptr %65, i32 0, i32 5
  %67 = load i32, ptr %4, align 4, !tbaa !13
  %68 = sext i32 %67 to i64
  %69 = getelementptr inbounds [10 x double], ptr %66, i64 0, i64 %68
  %70 = load double, ptr %69, align 8, !tbaa !45
  %71 = load double, ptr %7, align 8, !tbaa !45
  %72 = fcmp reassoc nsz arcp contract afn olt double %70, %71
  br i1 %72, label %73, label %75

73:                                               ; preds = %64
  %74 = load double, ptr %7, align 8, !tbaa !45
  br label %82

75:                                               ; preds = %64
  %76 = load ptr, ptr %3, align 8, !tbaa !24
  %77 = getelementptr inbounds nuw %struct._GtkDarktableGradientSlider, ptr %76, i32 0, i32 5
  %78 = load i32, ptr %4, align 4, !tbaa !13
  %79 = sext i32 %78 to i64
  %80 = getelementptr inbounds [10 x double], ptr %77, i64 0, i64 %79
  %81 = load double, ptr %80, align 8, !tbaa !45
  br label %82

82:                                               ; preds = %75, %73
  %83 = phi reassoc nsz arcp contract afn double [ %74, %73 ], [ %81, %75 ]
  br label %84

84:                                               ; preds = %82, %62
  %85 = phi reassoc nsz arcp contract afn double [ %63, %62 ], [ %83, %82 ]
  %86 = load ptr, ptr %3, align 8, !tbaa !24
  %87 = getelementptr inbounds nuw %struct._GtkDarktableGradientSlider, ptr %86, i32 0, i32 5
  %88 = load i32, ptr %4, align 4, !tbaa !13
  %89 = sext i32 %88 to i64
  %90 = getelementptr inbounds [10 x double], ptr %87, i64 0, i64 %89
  store double %85, ptr %90, align 8, !tbaa !45
  call void @llvm.lifetime.end.p0(i64 8, ptr %8) #11
  call void @llvm.lifetime.end.p0(i64 8, ptr %7) #11
  br label %91

91:                                               ; preds = %84, %21
  ret void
}

; Function Attrs: inlinehint nounwind uwtable
define internal ptr @DTGTK_GRADIENT_SLIDER(ptr noundef %0) #8 {
  %2 = alloca ptr, align 8
  store ptr %0, ptr %2, align 8, !tbaa !15
  %3 = load ptr, ptr %2, align 8, !tbaa !15
  %4 = call i64 @dtgtk_gradient_slider_get_type()
  %5 = call ptr @g_type_check_instance_cast(ptr noundef %3, i64 noundef %4)
  ret ptr %5
}

; Function Attrs: inlinehint nounwind uwtable
define internal i32 @DTGTK_IS_GRADIENT_SLIDER(ptr noundef %0) #8 {
  %2 = alloca ptr, align 8
  %3 = alloca ptr, align 8
  %4 = alloca i64, align 8
  %5 = alloca i32, align 4
  %6 = alloca i32, align 4
  store ptr %0, ptr %2, align 8, !tbaa !15
  call void @llvm.lifetime.start.p0(i64 8, ptr %3) #11
  %7 = load ptr, ptr %2, align 8, !tbaa !15
  store ptr %7, ptr %3, align 8, !tbaa !205
  call void @llvm.lifetime.start.p0(i64 8, ptr %4) #11
  %8 = call i64 @dtgtk_gradient_slider_get_type()
  store i64 %8, ptr %4, align 8, !tbaa !11
  call void @llvm.lifetime.start.p0(i64 4, ptr %5) #11
  %9 = load ptr, ptr %3, align 8, !tbaa !205
  %10 = icmp ne ptr %9, null
  br i1 %10, label %12, label %11

11:                                               ; preds = %1
  store i32 0, ptr %5, align 4, !tbaa !13
  br label %31

12:                                               ; preds = %1
  %13 = load ptr, ptr %3, align 8, !tbaa !205
  %14 = getelementptr inbounds nuw %struct._GTypeInstance, ptr %13, i32 0, i32 0
  %15 = load ptr, ptr %14, align 8, !tbaa !207
  %16 = icmp ne ptr %15, null
  br i1 %16, label %17, label %26

17:                                               ; preds = %12
  %18 = load ptr, ptr %3, align 8, !tbaa !205
  %19 = getelementptr inbounds nuw %struct._GTypeInstance, ptr %18, i32 0, i32 0
  %20 = load ptr, ptr %19, align 8, !tbaa !207
  %21 = getelementptr inbounds nuw %struct._GTypeClass, ptr %20, i32 0, i32 0
  %22 = load i64, ptr %21, align 8, !tbaa !121
  %23 = load i64, ptr %4, align 8, !tbaa !11
  %24 = icmp eq i64 %22, %23
  br i1 %24, label %25, label %26

25:                                               ; preds = %17
  store i32 1, ptr %5, align 4, !tbaa !13
  br label %30

26:                                               ; preds = %17, %12
  %27 = load ptr, ptr %3, align 8, !tbaa !205
  %28 = load i64, ptr %4, align 8, !tbaa !11
  %29 = call i32 @g_type_check_instance_is_a(ptr noundef %27, i64 noundef %28) #14
  store i32 %29, ptr %5, align 4, !tbaa !13
  br label %30

30:                                               ; preds = %26, %25
  br label %31

31:                                               ; preds = %30, %11
  %32 = load i32, ptr %5, align 4, !tbaa !13
  store i32 %32, ptr %6, align 4, !tbaa !13
  call void @llvm.lifetime.end.p0(i64 4, ptr %5) #11
  call void @llvm.lifetime.end.p0(i64 8, ptr %4) #11
  call void @llvm.lifetime.end.p0(i64 8, ptr %3) #11
  %33 = load i32, ptr %6, align 4, !tbaa !13
  ret i32 %33
}

; Function Attrs: nounwind uwtable
define internal i32 @_gradient_slider_add_delta_internal(ptr noundef %0, double noundef %1, i32 noundef %2, i32 noundef %3) #0 {
  %5 = alloca i32, align 4
  %6 = alloca ptr, align 8
  %7 = alloca double, align 8
  %8 = alloca i32, align 4
  %9 = alloca i32, align 4
  %10 = alloca i32, align 4
  %11 = alloca i32, align 4
  %12 = alloca ptr, align 8
  %13 = alloca i32, align 4
  store ptr %0, ptr %6, align 8, !tbaa !54
  store double %1, ptr %7, align 8, !tbaa !45
  store i32 %2, ptr %8, align 4, !tbaa !13
  store i32 %3, ptr %9, align 4, !tbaa !13
  br label %14

14:                                               ; preds = %4
  call void @llvm.lifetime.start.p0(i64 4, ptr %10) #11
  %15 = load ptr, ptr %6, align 8, !tbaa !54
  %16 = call i32 @DTGTK_IS_GRADIENT_SLIDER(ptr noundef %15)
  %17 = icmp ne i32 %16, 0
  br i1 %17, label %18, label %19

18:                                               ; preds = %14
  store i32 1, ptr %10, align 4, !tbaa !13
  br label %20

19:                                               ; preds = %14
  store i32 0, ptr %10, align 4, !tbaa !13
  br label %20

20:                                               ; preds = %19, %18
  %21 = load i32, ptr %10, align 4, !tbaa !13
  store i32 %21, ptr %11, align 4, !tbaa !13
  call void @llvm.lifetime.end.p0(i64 4, ptr %10) #11
  %22 = load i32, ptr %11, align 4, !tbaa !13
  %23 = sext i32 %22 to i64
  %24 = call i64 @llvm.expect.i64(i64 %23, i64 1)
  %25 = icmp ne i64 %24, 0
  br i1 %25, label %26, label %27

26:                                               ; preds = %20
  br label %28

27:                                               ; preds = %20
  call void @g_return_if_fail_warning(ptr noundef null, ptr noundef @__func__._gradient_slider_add_delta_internal, ptr noundef @.str.9)
  store i32 1, ptr %5, align 4
  br label %61

28:                                               ; preds = %26
  br label %29

29:                                               ; preds = %28
  call void @llvm.lifetime.start.p0(i64 8, ptr %12) #11
  %30 = load ptr, ptr %6, align 8, !tbaa !54
  %31 = call ptr @DTGTK_GRADIENT_SLIDER(ptr noundef %30)
  store ptr %31, ptr %12, align 8, !tbaa !24
  %32 = load i32, ptr %9, align 4, !tbaa !13
  %33 = icmp eq i32 %32, -1
  br i1 %33, label %34, label %35

34:                                               ; preds = %29
  store i32 1, ptr %5, align 4
  store i32 1, ptr %13, align 4
  br label %60

35:                                               ; preds = %29
  %36 = load ptr, ptr %6, align 8, !tbaa !54
  %37 = load i32, ptr %8, align 4, !tbaa !13
  %38 = call reassoc nsz arcp contract afn float @dt_accel_get_speed_multiplier(ptr noundef %36, i32 noundef %37)
  %39 = fpext reassoc nsz arcp contract afn float %38 to double
  %40 = load double, ptr %7, align 8, !tbaa !45
  %41 = fmul reassoc nsz arcp contract afn double %40, %39
  store double %41, ptr %7, align 8, !tbaa !45
  %42 = load ptr, ptr %12, align 8, !tbaa !24
  %43 = getelementptr inbounds nuw %struct._GtkDarktableGradientSlider, ptr %42, i32 0, i32 5
  %44 = load i32, ptr %9, align 4, !tbaa !13
  %45 = sext i32 %44 to i64
  %46 = getelementptr inbounds [10 x double], ptr %43, i64 0, i64 %45
  %47 = load double, ptr %46, align 8, !tbaa !45
  %48 = load double, ptr %7, align 8, !tbaa !45
  %49 = fadd reassoc nsz arcp contract afn double %47, %48
  %50 = load ptr, ptr %12, align 8, !tbaa !24
  %51 = getelementptr inbounds nuw %struct._GtkDarktableGradientSlider, ptr %50, i32 0, i32 5
  %52 = load i32, ptr %9, align 4, !tbaa !13
  %53 = sext i32 %52 to i64
  %54 = getelementptr inbounds [10 x double], ptr %51, i64 0, i64 %53
  store double %49, ptr %54, align 8, !tbaa !45
  %55 = load ptr, ptr %12, align 8, !tbaa !24
  %56 = load i32, ptr %9, align 4, !tbaa !13
  call void @_clamp_marker(ptr noundef %55, i32 noundef %56)
  %57 = load ptr, ptr %6, align 8, !tbaa !54
  call void @gtk_widget_queue_draw(ptr noundef %57)
  %58 = load ptr, ptr %6, align 8, !tbaa !54
  %59 = call ptr @g_type_check_instance_cast(ptr noundef %58, i64 noundef 80)
  call void (ptr, ptr, ...) @g_signal_emit_by_name(ptr noundef %59, ptr noundef @.str.2)
  store i32 1, ptr %5, align 4
  store i32 1, ptr %13, align 4
  br label %60

60:                                               ; preds = %35, %34
  call void @llvm.lifetime.end.p0(i64 8, ptr %12) #11
  br label %61

61:                                               ; preds = %60, %27
  %62 = load i32, ptr %5, align 4
  ret i32 %62
}