; Function Attrs: nounwind uwtable
define internal fastcc void @_gradient_slider_add_delta_internal(ptr noundef %0, double noundef %1, i32 noundef %2, i32 noundef range(i32 0, -1) %3) unnamed_addr #0 {
  %5 = load atomic i64, ptr @_gradient_slider_get_type.static_g_define_type_id seq_cst, align 8
  %.not.i.i.i = icmp eq i64 %5, 0
  br i1 %.not.i.i.i, label %6, label %dtgtk_gradient_slider_get_type.exit.i

6:                                                ; preds = %4
  %7 = tail call i32 @g_once_init_enter(ptr noundef nonnull @_gradient_slider_get_type.static_g_define_type_id) #14
  %.not4.i.i.i = icmp eq i32 %7, 0
  br i1 %.not4.i.i.i, label %dtgtk_gradient_slider_get_type.exit.i, label %8

8:                                                ; preds = %6
  %9 = tail call fastcc i64 @_gradient_slider_get_type_once()
  tail call void @g_once_init_leave(ptr noundef nonnull @_gradient_slider_get_type.static_g_define_type_id, i64 noundef %9) #14
  br label %dtgtk_gradient_slider_get_type.exit.i

dtgtk_gradient_slider_get_type.exit.i:            ; preds = %8, %6, %4
  %10 = load i64, ptr @_gradient_slider_get_type.static_g_define_type_id, align 8, !tbaa !6
  %.not.i = icmp eq ptr %0, null
  br i1 %.not.i, label %DTGTK_IS_GRADIENT_SLIDER.exit.thread, label %11

11:                                               ; preds = %dtgtk_gradient_slider_get_type.exit.i
  %12 = load ptr, ptr %0, align 8, !tbaa !113
  %.not10.i = icmp eq ptr %12, null
  br i1 %.not10.i, label %DTGTK_IS_GRADIENT_SLIDER.exit, label %13

13:                                               ; preds = %11
  %14 = load i64, ptr %12, align 8, !tbaa !107
  %15 = icmp eq i64 %14, %10
  br i1 %15, label %DTGTK_IS_GRADIENT_SLIDER.exit.thread25, label %DTGTK_IS_GRADIENT_SLIDER.exit

DTGTK_IS_GRADIENT_SLIDER.exit:                    ; preds = %11, %13
  %16 = tail call i32 @g_type_check_instance_is_a(ptr noundef nonnull readonly %0, i64 noundef %10) #17
  %.not = icmp eq i32 %16, 0
  br i1 %.not, label %DTGTK_IS_GRADIENT_SLIDER.exit.thread, label %DTGTK_IS_GRADIENT_SLIDER.exit.thread25, !prof !114

DTGTK_IS_GRADIENT_SLIDER.exit.thread:             ; preds = %dtgtk_gradient_slider_get_type.exit.i, %DTGTK_IS_GRADIENT_SLIDER.exit
  tail call void @g_return_if_fail_warning(ptr noundef null, ptr noundef nonnull @__func__._gradient_slider_add_delta_internal, ptr noundef nonnull @.str.9) #14
  br label %55

DTGTK_IS_GRADIENT_SLIDER.exit.thread25:           ; preds = %13, %DTGTK_IS_GRADIENT_SLIDER.exit
  %17 = load atomic i64, ptr @_gradient_slider_get_type.static_g_define_type_id seq_cst, align 8
  %.not.i.i.i19 = icmp eq i64 %17, 0
  br i1 %.not.i.i.i19, label %18, label %22

18:                                               ; preds = %DTGTK_IS_GRADIENT_SLIDER.exit.thread25
  %19 = tail call i32 @g_once_init_enter(ptr noundef nonnull @_gradient_slider_get_type.static_g_define_type_id) #14
  %.not4.i.i.i21 = icmp eq i32 %19, 0
  br i1 %.not4.i.i.i21, label %22, label %20

20:                                               ; preds = %18
  %21 = tail call fastcc i64 @_gradient_slider_get_type_once()
  tail call void @g_once_init_leave(ptr noundef nonnull @_gradient_slider_get_type.static_g_define_type_id, i64 noundef %21) #14
  br label %22

22:                                               ; preds = %20, %18, %DTGTK_IS_GRADIENT_SLIDER.exit.thread25
  %23 = load i64, ptr @_gradient_slider_get_type.static_g_define_type_id, align 8, !tbaa !6
  %24 = tail call ptr @g_type_check_instance_cast(ptr noundef nonnull %0, i64 noundef %23) #14
  %25 = tail call reassoc nsz arcp contract afn float @dt_accel_get_speed_multiplier(ptr noundef nonnull %0, i32 noundef %2) #14
  %26 = fpext reassoc nsz arcp contract afn float %25 to double
  %27 = fmul reassoc nsz arcp contract afn double %1, %26
  %28 = getelementptr inbounds nuw i8, ptr %24, i64 64
  %29 = sext i32 %3 to i64
  %30 = getelementptr inbounds [10 x double], ptr %28, i64 0, i64 %29
  %31 = load double, ptr %30, align 8, !tbaa !37
  %32 = fadd reassoc nsz arcp contract afn double %27, %31
  %33 = icmp eq i32 %3, 0
  br i1 %33, label %39, label %34

34:                                               ; preds = %22
  %35 = add nsw i32 %3, -1
  %36 = sext i32 %35 to i64
  %37 = getelementptr inbounds [10 x double], ptr %28, i64 0, i64 %36
  %38 = load double, ptr %37, align 8, !tbaa !37
  br label %39

39:                                               ; preds = %34, %22
  %40 = phi reassoc nsz arcp contract afn double [ %38, %34 ], [ 0.000000e+00, %22 ]
  %41 = getelementptr inbounds nuw i8, ptr %24, i64 56
  %42 = load i32, ptr %41, align 8, !tbaa !16
  %43 = add nsw i32 %42, -1
  %44 = icmp eq i32 %3, %43
  br i1 %44, label %_clamp_marker.exit, label %45

45:                                               ; preds = %39
  %46 = add nuw nsw i32 %3, 1
  %47 = sext i32 %46 to i64
  %48 = getelementptr inbounds [10 x double], ptr %28, i64 0, i64 %47
  %49 = load double, ptr %48, align 8, !tbaa !37
  br label %_clamp_marker.exit

_clamp_marker.exit:                               ; preds = %39, %45
  %50 = phi reassoc nsz arcp contract afn double [ %49, %45 ], [ 1.000000e+00, %39 ]
  %51 = fcmp reassoc nsz arcp contract afn ogt double %32, %50
  %52 = fcmp reassoc nsz arcp contract afn olt double %32, %40
  %..i = select reassoc nsz arcp contract afn i1 %52, double %40, double %32
  %53 = select reassoc nsz arcp contract afn i1 %51, double %50, double %..i
  store double %53, ptr %30, align 8, !tbaa !37
  tail call void @gtk_widget_queue_draw(ptr noundef nonnull %0) #14
  %54 = tail call ptr @g_type_check_instance_cast(ptr noundef nonnull %0, i64 noundef 80) #14
  tail call void (ptr, ptr, ...) @g_signal_emit_by_name(ptr noundef %54, ptr noundef nonnull @.str.2) #14
  br label %55

55:                                               ; preds = %_clamp_marker.exit, %DTGTK_IS_GRADIENT_SLIDER.exit.thread
  ret void
}